target datalayout = "e-m:e-p270:32:32-p271:32:32-p272:64:64-i64:64-i128:128-f80:128-n8:16:32:64-S128"
target triple = "x86_64-unknown-linux-gnu"

%struct.hdr_histogram = type { i64, i64, i32, i32, i32, i32, i64, i32, i32, i64, i64, i32, double, i32, i64, ptr }

; Function Attrs: nounwind uwtable
define internal i32 @count_leading_zeros_64(i64 noundef %value) #0 {
entry:
  %value.addr = alloca i64, align 8
  store i64 %value, ptr %value.addr, align 8
  %0 = load i64, ptr %value.addr, align 8
  %1 = call i64 @llvm.ctlz.i64(i64 %0, i1 true)
  %cast = trunc i64 %1 to i32
  ret i32 %cast
}

; Function Attrs: nounwind uwtable
define internal i32 @normalize_index(ptr noundef %h, i32 noundef %index) #0 {
entry:
  %retval = alloca i32, align 4
  %h.addr = alloca ptr, align 8
  %index.addr = alloca i32, align 4
  %normalized_index = alloca i32, align 4
  %adjustment = alloca i32, align 4
  store ptr %h, ptr %h.addr, align 8
  store i32 %index, ptr %index.addr, align 4
  store i32 0, ptr %adjustment, align 4
  %0 = load ptr, ptr %h.addr, align 8
  %normalizing_index_offset = getelementptr inbounds %struct.hdr_histogram, ptr %0, i32 0, i32 11
  %1 = load i32, ptr %normalizing_index_offset, align 8
  %cmp = icmp eq i32 %1, 0
  br i1 %cmp, label %if.then, label %if.end

if.then:                                          ; preds = %entry
  %2 = load i32, ptr %index.addr, align 4
  store i32 %2, ptr %retval, align 4
  br label %return

if.end:                                           ; preds = %entry
  %3 = load i32, ptr %index.addr, align 4
  %4 = load ptr, ptr %h.addr, align 8
  %normalizing_index_offset1 = getelementptr inbounds %struct.hdr_histogram, ptr %4, i32 0, i32 11
  %5 = load i32, ptr %normalizing_index_offset1, align 8
  %sub = sub nsw i32 %3, %5
  store i32 %sub, ptr %normalized_index, align 4
  %6 = load i32, ptr %normalized_index, align 4
  %cmp2 = icmp slt i32 %6, 0
  br i1 %cmp2, label %if.then3, label %if.else

if.then3:                                         ; preds = %if.end
  %7 = load ptr, ptr %h.addr, align 8
  %counts_len = getelementptr inbounds %struct.hdr_histogram, ptr %7, i32 0, i32 13
  %8 = load i32, ptr %counts_len, align 8
  store i32 %8, ptr %adjustment, align 4
  br label %if.end10

if.else:                                          ; preds = %if.end
  %9 = load i32, ptr %normalized_index, align 4
  %10 = load ptr, ptr %h.addr, align 8
  %counts_len4 = getelementptr inbounds %struct.hdr_histogram, ptr %10, i32 0, i32 13
  %11 = load i32, ptr %counts_len4, align 8
  %cmp5 = icmp sge i32 %9, %11
  br i1 %cmp5, label %if.then6, label %if.end9

if.then6:                                         ; preds = %if.else
  %12 = load ptr, ptr %h.addr, align 8
  %counts_len7 = getelementptr inbounds %struct.hdr_histogram, ptr %12, i32 0, i32 13
  %13 = load i32, ptr %counts_len7, align 8
  %sub8 = sub nsw i32 0, %13
  store i32 %sub8, ptr %adjustment, align 4
  br label %if.end9

if.end9:                                          ; preds = %if.then6, %if.else
  br label %if.end10

if.end10:                                         ; preds = %if.end9, %if.then3
  %14 = load i32, ptr %normalized_index, align 4
  %15 = load i32, ptr %adjustment, align 4
  %add = add nsw i32 %14, %15
  store i32 %add, ptr %retval, align 4
  br label %return

return:                                           ; preds = %if.end10, %if.then
  %16 = load i32, ptr %retval, align 4
  ret i32 %16
}

; Function Attrs: nounwind uwtable
define internal i32 @counts_index(ptr noundef %h, i32 noundef %bucket_index, i32 noundef %sub_bucket_index) #0 {
entry:
  %h.addr = alloca ptr, align 8
  %bucket_index.addr = alloca i32, align 4
  %sub_bucket_index.addr = alloca i32, align 4
  %bucket_base_index = alloca i32, align 4
  %offset_in_bucket = alloca i32, align 4
  store ptr %h, ptr %h.addr, align 8
  store i32 %bucket_index, ptr %bucket_index.addr, align 4
  store i32 %sub_bucket_index, ptr %sub_bucket_index.addr, align 4
  %0 = load i32, ptr %bucket_index.addr, align 4
  %add = add nsw i32 %0, 1
  %1 = load ptr, ptr %h.addr, align 8
  %sub_bucket_half_count_magnitude = getelementptr inbounds %struct.hdr_histogram, ptr %1, i32 0, i32 4
  %2 = load i32, ptr %sub_bucket_half_count_magnitude, align 8
  %shl = shl i32 %add, %2
  store i32 %shl, ptr %bucket_base_index, align 4
  %3 = load i32, ptr %sub_bucket_index.addr, align 4
  %4 = load ptr, ptr %h.addr, align 8
  %sub_bucket_half_count = getelementptr inbounds %struct.hdr_histogram, ptr %4, i32 0, i32 5
  %5 = load i32, ptr %sub_bucket_half_count, align 4
  %sub = sub nsw i32 %3, %5
  store i32 %sub, ptr %offset_in_bucket, align 4
  %6 = load i32, ptr %bucket_base_index, align 4
  %7 = load i32, ptr %offset_in_bucket, align 4
  %add1 = add nsw i32 %6, %7
  ret i32 %add1
}

; Function Attrs: nounwind uwtable
define internal i32 @get_sub_bucket_index(i64 noundef %value, i32 noundef %bucket_index, i32 noundef %unit_magnitude) #0 {
entry:
  %value.addr = alloca i64, align 8
  %bucket_index.addr = alloca i32, align 4
  %unit_magnitude.addr = alloca i32, align 4
  store i64 %value, ptr %value.addr, align 8
  store i32 %bucket_index, ptr %bucket_index.addr, align 4
  store i32 %unit_magnitude, ptr %unit_magnitude.addr, align 4
  %0 = load i64, ptr %value.addr, align 8
  %1 = load i32, ptr %bucket_index.addr, align 4
  %2 = load i32, ptr %unit_magnitude.addr, align 4
  %add = add nsw i32 %1, %2
  %sh_prom = zext i32 %add to i64
  %shr = ashr i64 %0, %sh_prom
  %conv = trunc i64 %shr to i32
  ret i32 %conv
}

; Function Attrs: nounwind uwtable
define internal i32 @get_bucket_index(ptr noundef %h, i64 noundef %value) #0 {
entry:
  %h.addr = alloca ptr, align 8
  %value.addr = alloca i64, align 8
  %pow2ceiling = alloca i32, align 4
  store ptr %h, ptr %h.addr, align 8
  store i64 %value, ptr %value.addr, align 8
  %0 = load i64, ptr %value.addr, align 8
  %1 = load ptr, ptr %h.addr, align 8
  %sub_bucket_mask = getelementptr inbounds %struct.hdr_histogram, ptr %1, i32 0, i32 6
  %2 = load i64, ptr %sub_bucket_mask, align 8
  %or = or i64 %0, %2
  %call = call i32 @count_leading_zeros_64(i64 noundef %or)
  %sub = sub nsw i32 64, %call
  store i32 %sub, ptr %pow2ceiling, align 4
  %3 = load i32, ptr %pow2ceiling, align 4
  %4 = load ptr, ptr %h.addr, align 8
  %unit_magnitude = getelementptr inbounds %struct.hdr_histogram, ptr %4, i32 0, i32 2
  %5 = load i32, ptr %unit_magnitude, align 8
  %sub1 = sub nsw i32 %3, %5
  %6 = load ptr, ptr %h.addr, align 8
  %sub_bucket_half_count_magnitude = getelementptr inbounds %struct.hdr_histogram, ptr %6, i32 0, i32 4
  %7 = load i32, ptr %sub_bucket_half_count_magnitude, align 8
  %add = add nsw i32 %7, 1
  %sub2 = sub nsw i32 %sub1, %add
  ret i32 %sub2
}

; Function Attrs: nounwind uwtable
define internal void @update_min_max(ptr noundef %h, i64 noundef %value) #0 {
entry:
  %h.addr = alloca ptr, align 8
  %value.addr = alloca i64, align 8
  store ptr %h, ptr %h.addr, align 8
  store i64 %value, ptr %value.addr, align 8
  %0 = load i64, ptr %value.addr, align 8
  %1 = load ptr, ptr %h.addr, align 8
  %min_value = getelementptr inbounds %struct.hdr_histogram, ptr %1, i32 0, i32 9
  %2 = load i64, ptr %min_value, align 8
  %cmp = icmp slt i64 %0, %2
  br i1 %cmp, label %land.lhs.true, label %cond.false

land.lhs.true:                                    ; preds = %entry
  %3 = load i64, ptr %value.addr, align 8
  %cmp1 = icmp ne i64 %3, 0
  br i1 %cmp1, label %cond.true, label %cond.false

cond.true:                                        ; preds = %land.lhs.true
  %4 = load i64, ptr %value.addr, align 8
  br label %cond.end

cond.false:                                       ; preds = %land.lhs.true, %entry
  %5 = load ptr, ptr %h.addr, align 8
  %min_value2 = getelementptr inbounds %struct.hdr_histogram, ptr %5, i32 0, i32 9
  %6 = load i64, ptr %min_value2, align 8
  br label %cond.end

cond.end:                                         ; preds = %cond.false, %cond.true
  %cond = phi i64 [ %4, %cond.true ], [ %6, %cond.false ]
  %7 = load ptr, ptr %h.addr, align 8
  %min_value3 = getelementptr inbounds %struct.hdr_histogram, ptr %7, i32 0, i32 9
  store i64 %cond, ptr %min_value3, align 8
  %8 = load i64, ptr %value.addr, align 8
  %9 = load ptr, ptr %h.addr, align 8
  %max_value = getelementptr inbounds %struct.hdr_histogram, ptr %9, i32 0, i32 10
  %10 = load i64, ptr %max_value, align 8
  %cmp4 = icmp sgt i64 %8, %10
  br i1 %cmp4, label %cond.true5, label %cond.false6

cond.true5:                                       ; preds = %cond.end
  %11 = load i64, ptr %value.addr, align 8
  br label %cond.end8

cond.false6:                                      ; preds = %cond.end
  %12 = load ptr, ptr %h.addr, align 8
  %max_value7 = getelementptr inbounds %struct.hdr_histogram, ptr %12, i32 0, i32 10
  %13 = load i64, ptr %max_value7, align 8
  br label %cond.end8

cond.end8:                                        ; preds = %cond.false6, %cond.true5
  %cond9 = phi i64 [ %11, %cond.true5 ], [ %13, %cond.false6 ]
  %14 = load ptr, ptr %h.addr, align 8
  %max_value10 = getelementptr inbounds %struct.hdr_histogram, ptr %14, i32 0, i32 10
  store i64 %cond9, ptr %max_value10, align 8
  ret void
}

; Function Attrs: nounwind uwtable
define internal void @counts_inc_normalised(ptr noundef %h, i32 noundef %index, i64 noundef %value) #0 {
entry:
  %h.addr = alloca ptr, align 8
  %index.addr = alloca i32, align 4
  %value.addr = alloca i64, align 8
  %normalised_index = alloca i32, align 4
  store ptr %h, ptr %h.addr, align 8
  store i32 %index, ptr %index.addr, align 4
  store i64 %value, ptr %value.addr, align 8
  %0 = load ptr, ptr %h.addr, align 8
  %1 = load i32, ptr %index.addr, align 4
  %call = call i32 @normalize_index(ptr noundef %0, i32 noundef %1)
  store i32 %call, ptr %normalised_index, align 4
  %2 = load i64, ptr %value.addr, align 8
  %3 = load ptr, ptr %h.addr, align 8
  %counts = getelementptr inbounds %struct.hdr_histogram, ptr %3, i32 0, i32 15
  %4 = load ptr, ptr %counts, align 8
  %5 = load i32, ptr %normalised_index, align 4
  %idxprom = sext i32 %5 to i64
  %arrayidx = getelementptr inbounds i64, ptr %4, i64 %idxprom
  %6 = load i64, ptr %arrayidx, align 8
  %add = add nsw i64 %6, %2
  store i64 %add, ptr %arrayidx, align 8
  %7 = load i64, ptr %value.addr, align 8
  %8 = load ptr, ptr %h.addr, align 8
  %total_count = getelementptr inbounds %struct.hdr_histogram, ptr %8, i32 0, i32 14
  %9 = load i64, ptr %total_count, align 8
  %add1 = add nsw i64 %9, %7
  store i64 %add1, ptr %total_count, align 8
  ret void
}

; Function Attrs: nounwind uwtable
define dso_local i32 @counts_index_for(ptr noundef %h, i64 noundef %value) #0 {
entry:
  %h.addr = alloca ptr, align 8
  %value.addr = alloca i64, align 8
  %bucket_index = alloca i32, align 4
  %sub_bucket_index = alloca i32, align 4
  store ptr %h, ptr %h.addr, align 8
  store i64 %value, ptr %value.addr, align 8
  %0 = load ptr, ptr %h.addr, align 8
  %1 = load i64, ptr %value.addr, align 8
  %call = call i32 @get_bucket_index(ptr noundef %0, i64 noundef %1)
  store i32 %call, ptr %bucket_index, align 4
  %2 = load i64, ptr %value.addr, align 8
  %3 = load i32, ptr %bucket_index, align 4
  %4 = load ptr, ptr %h.addr, align 8
  %unit_magnitude = getelementptr inbounds %struct.hdr_histogram, ptr %4, i32 0, i32 2
  %5 = load i32, ptr %unit_magnitude, align 8
  %call1 = call i32 @get_sub_bucket_index(i64 noundef %2, i32 noundef %3, i32 noundef %5)
  store i32 %call1, ptr %sub_bucket_index, align 4
  %6 = load ptr, ptr %h.addr, align 8
  %7 = load i32, ptr %bucket_index, align 4
  %8 = load i32, ptr %sub_bucket_index, align 4
  %call2 = call i32 @counts_index(ptr noundef %6, i32 noundef %7, i32 noundef %8)
  ret i32 %call2
}

; Function Attrs: nounwind uwtable
define dso_local zeroext i1 @hdr_record_values(ptr noundef %h, i64 noundef %value, i64 noundef %count) #0 {
entry:
  %retval = alloca i1, align 1
  %h.addr = alloca ptr, align 8
  %value.addr = alloca i64, align 8
  %count.addr = alloca i64, align 8
  %counts_index = alloca i32, align 4
  store ptr %h, ptr %h.addr, align 8
  store i64 %value, ptr %value.addr, align 8
  store i64 %count, ptr %count.addr, align 8
  %0 = load i64, ptr %value.addr, align 8
  %cmp = icmp slt i64 %0, 0
  br i1 %cmp, label %if.then, label %if.end

if.then:                                          ; preds = %entry
  store i1 false, ptr %retval, align 1
  br label %return

if.end:                                           ; preds = %entry
  %1 = load ptr, ptr %h.addr, align 8
  %2 = load i64, ptr %value.addr, align 8
  %call = call i32 @counts_index_for(ptr noundef %1, i64 noundef %2)
  store i32 %call, ptr %counts_index, align 4
  %3 = load i32, ptr %counts_index, align 4
  %cmp1 = icmp slt i32 %3, 0
  br i1 %cmp1, label %if.then3, label %lor.lhs.false

lor.lhs.false:                                    ; preds = %if.end
  %4 = load ptr, ptr %h.addr, align 8
  %counts_len = getelementptr inbounds %struct.hdr_histogram, ptr %4, i32 0, i32 13
  %5 = load i32, ptr %counts_len, align 8
  %6 = load i32, ptr %counts_index, align 4
  %cmp2 = icmp sle i32 %5, %6
  br i1 %cmp2, label %if.then3, label %if.end4

if.then3:                                         ; preds = %lor.lhs.false, %if.end
  store i1 false, ptr %retval, align 1
  br label %return

if.end4:                                          ; preds = %lor.lhs.false
  %7 = load ptr, ptr %h.addr, align 8
  %8 = load i32, ptr %counts_index, align 4
  %9 = load i64, ptr %count.addr, align 8
  call void @counts_inc_normalised(ptr noundef %7, i32 noundef %8, i64 noundef %9)
  %10 = load ptr, ptr %h.addr, align 8
  %11 = load i64, ptr %value.addr, align 8
  call void @update_min_max(ptr noundef %10, i64 noundef %11)
  store i1 true, ptr %retval, align 1
  br label %return

return:                                           ; preds = %if.end4, %if.then3, %if.then
  %12 = load i1, ptr %retval, align 1
  ret i1 %12
}

; Function Attrs: nounwind uwtable
define dso_local zeroext i1 @hdr_record_corrected_values(ptr noundef %h, i64 noundef %value, i64 noundef %count, i64 noundef %expected_interval) #0 {
entry:
  %retval = alloca i1, align 1
  %h.addr = alloca ptr, align 8
  %value.addr = alloca i64, align 8
  %count.addr = alloca i64, align 8
  %expected_interval.addr = alloca i64, align 8
  %missing_value = alloca i64, align 8
  store ptr %h, ptr %h.addr, align 8
  store i64 %value, ptr %value.addr, align 8
  store i64 %count, ptr %count.addr, align 8
  store i64 %expected_interval, ptr %expected_interval.addr, align 8
  %0 = load ptr, ptr %h.addr, align 8
  %1 = load i64, ptr %value.addr, align 8
  %2 = load i64, ptr %count.addr, align 8
  %call = call zeroext i1 @hdr_record_values(ptr noundef %0, i64 noundef %1, i64 noundef %2)
  br i1 %call, label %if.end, label %if.then

if.then:                                          ; preds = %entry
  store i1 false, ptr %retval, align 1
  br label %return

if.end:                                           ; preds = %entry
  %3 = load i64, ptr %expected_interval.addr, align 8
  %cmp = icmp sle i64 %3, 0
  br i1 %cmp, label %if.then2, label %lor.lhs.false

lor.lhs.false:                                    ; preds = %if.end
  %4 = load i64, ptr %value.addr, align 8
  %5 = load i64, ptr %expected_interval.addr, align 8
  %cmp1 = icmp sle i64 %4, %5
  br i1 %cmp1, label %if.then2, label %if.end3

if.then2:                                         ; preds = %lor.lhs.false, %if.end
  store i1 true, ptr %retval, align 1
  br label %return

if.end3:                                          ; preds = %lor.lhs.false
  %6 = load i64, ptr %value.addr, align 8
  %7 = load i64, ptr %expected_interval.addr, align 8
  %sub = sub nsw i64 %6, %7
  store i64 %sub, ptr %missing_value, align 8
  br label %for.cond

for.cond:                                         ; preds = %for.inc, %if.end3
  %8 = load i64, ptr %missing_value, align 8
  %9 = load i64, ptr %expected_interval.addr, align 8
  %cmp4 = icmp sge i64 %8, %9
  br i1 %cmp4, label %for.body, label %for.end

for.body:                                         ; preds = %for.cond
  %10 = load ptr, ptr %h.addr, align 8
  %11 = load i64, ptr %missing_value, align 8
  %12 = load i64, ptr %count.addr, align 8
  %call5 = call zeroext i1 @hdr_record_values(ptr noundef %10, i64 noundef %11, i64 noundef %12)
  br i1 %call5, label %if.end7, label %if.then6

if.then6:                                         ; preds = %for.body
  store i1 false, ptr %retval, align 1
  br label %return

if.end7:                                          ; preds = %for.body
  br label %for.inc

for.inc:                                          ; preds = %if.end7
  %13 = load i64, ptr %expected_interval.addr, align 8
  %14 = load i64, ptr %missing_value, align 8
  %sub8 = sub nsw i64 %14, %13
  store i64 %sub8, ptr %missing_value, align 8
  br label %for.cond

for.end:                                          ; preds = %for.cond
  store i1 true, ptr %retval, align 1
  br label %return

return:                                           ; preds = %for.end, %if.then6, %if.then2, %if.then
  %15 = load i1, ptr %retval, align 1
  ret i1 %15
}