; Function Attrs: nofree norecurse nosync nounwind memory(readwrite, inaccessiblemem: none) uwtable
define dso_local noundef zeroext i1 @hdr_record_corrected_values(ptr nocapture noundef %h, i64 noundef %value, i64 noundef %count, i64 noundef %expected_interval) local_unnamed_addr #12 {
entry:
  %cmp.i = icmp slt i64 %value, 0
  br i1 %cmp.i, label %return, label %if.end.i

if.end.i:                                         ; preds = %entry
  %sub_bucket_mask.i.i.i = getelementptr inbounds i8, ptr %h, i64 32
  %0 = load i64, ptr %sub_bucket_mask.i.i.i, align 8
  %or.i.i.i = or i64 %0, %value
  %1 = tail call i64 @llvm.ctlz.i64(i64 %or.i.i.i, i1 true), !range !5
  %cast.i.i.i.i = trunc i64 %1 to i32
  %unit_magnitude.i.i.i = getelementptr inbounds i8, ptr %h, i64 16
  %2 = load i32, ptr %unit_magnitude.i.i.i, align 8
  %sub_bucket_half_count_magnitude.i.i.i = getelementptr inbounds i8, ptr %h, i64 24
  %3 = load i32, ptr %sub_bucket_half_count_magnitude.i.i.i, align 8
  %4 = add i32 %3, %2
  %5 = add i32 %4, %cast.i.i.i.i
  %reass.sub.i.i = add i32 %2, 63
  %add.i.i.i = sub i32 %reass.sub.i.i, %5
  %sh_prom.i.i.i = zext nneg i32 %add.i.i.i to i64
  %shr.i.i.i = lshr i64 %value, %sh_prom.i.i.i
  %conv.i.i.i = trunc i64 %shr.i.i.i to i32
  %6 = getelementptr i8, ptr %h, i64 28
  %h.val5.i.i = load i32, ptr %6, align 4
  %add.i6.i.i = sub i32 64, %5
  %shl.i.i.i = shl i32 %add.i6.i.i, %3
  %sub.i.i.i = sub i32 %shl.i.i.i, %h.val5.i.i
  %add1.i.i.i = add i32 %sub.i.i.i, %conv.i.i.i
  %cmp1.i = icmp slt i32 %add1.i.i.i, 0
  br i1 %cmp1.i, label %return, label %lor.lhs.false.i

lor.lhs.false.i:                                  ; preds = %if.end.i
  %counts_len.i = getelementptr inbounds i8, ptr %h, i64 80
  %7 = load i32, ptr %counts_len.i, align 8
  %cmp2.not.i = icmp sgt i32 %7, %add1.i.i.i
  br i1 %cmp2.not.i, label %if.end4.i, label %return

if.end4.i:                                        ; preds = %lor.lhs.false.i
  %normalizing_index_offset.i.i.i = getelementptr inbounds i8, ptr %h, i64 64
  %8 = load i32, ptr %normalizing_index_offset.i.i.i, align 8
  %cmp.i.i.i = icmp eq i32 %8, 0
  br i1 %cmp.i.i.i, label %if.end, label %if.end.i.i.i

if.end.i.i.i:                                     ; preds = %if.end4.i
  %sub.i.i8.i = sub nsw i32 %add1.i.i.i, %8
  %cmp2.i.i.i = icmp slt i32 %sub.i.i8.i, 0
  %cmp5.not.i.i.i = icmp slt i32 %sub.i.i8.i, %7
  %sub8.i.i.i = sub nsw i32 0, %7
  %spec.select.i.i.i = select i1 %cmp5.not.i.i.i, i32 0, i32 %sub8.i.i.i
  %adjustment.0.i.i.i = select i1 %cmp2.i.i.i, i32 %7, i32 %spec.select.i.i.i
  %add.i.i9.i = add nsw i32 %adjustment.0.i.i.i, %sub.i.i8.i
  br label %if.end

if.end:                                           ; preds = %if.end.i.i.i, %if.end4.i
  %retval.0.i.i.i = phi i32 [ %add.i.i9.i, %if.end.i.i.i ], [ %add1.i.i.i, %if.end4.i ]
  %counts.i.i = getelementptr inbounds i8, ptr %h, i64 96
  %9 = load ptr, ptr %counts.i.i, align 8
  %idxprom.i.i = sext i32 %retval.0.i.i.i to i64
  %arrayidx.i.i = getelementptr inbounds i64, ptr %9, i64 %idxprom.i.i
  %10 = load i64, ptr %arrayidx.i.i, align 8
  %add.i.i = add nsw i64 %10, %count
  store i64 %add.i.i, ptr %arrayidx.i.i, align 8
  %total_count.i.i = getelementptr inbounds i8, ptr %h, i64 88
  %11 = load i64, ptr %total_count.i.i, align 8
  %add1.i.i = add nsw i64 %11, %count
  store i64 %add1.i.i, ptr %total_count.i.i, align 8
  %min_value.i.i = getelementptr inbounds i8, ptr %h, i64 48
  %12 = load i64, ptr %min_value.i.i, align 8
  %cmp1.not.i.i = icmp eq i64 %value, 0
  %13 = tail call i64 @llvm.smin.i64(i64 %12, i64 %value)
  %value..i.i = select i1 %cmp1.not.i.i, i64 %12, i64 %13
  store i64 %value..i.i, ptr %min_value.i.i, align 8
  %max_value.i.i = getelementptr inbounds i8, ptr %h, i64 56
  %14 = load i64, ptr %max_value.i.i, align 8
  %cond9.i.i = tail call i64 @llvm.smax.i64(i64 %14, i64 %value)
  store i64 %cond9.i.i, ptr %max_value.i.i, align 8
  %cmp = icmp slt i64 %expected_interval, 1
  %cmp1.not = icmp sle i64 %value, %expected_interval
  %or.cond.not67 = or i1 %cmp, %cmp1.not
  %missing_value.061 = sub nsw i64 %value, %expected_interval
  %cmp4.not62 = icmp slt i64 %missing_value.061, %expected_interval
  %or.cond66 = select i1 %or.cond.not67, i1 true, i1 %cmp4.not62
  br i1 %or.cond66, label %return, label %for.body

for.body:                                         ; preds = %if.end, %hdr_record_values.exit57
  %missing_value.063 = phi i64 [ %missing_value.0, %hdr_record_values.exit57 ], [ %missing_value.061, %if.end ]
  %15 = load i64, ptr %sub_bucket_mask.i.i.i, align 8
  %or.i.i.i14 = or i64 %15, %missing_value.063
  %16 = tail call i64 @llvm.ctlz.i64(i64 %or.i.i.i14, i1 true), !range !5
  %cast.i.i.i.i15 = trunc i64 %16 to i32
  %17 = load i32, ptr %unit_magnitude.i.i.i, align 8
  %18 = load i32, ptr %sub_bucket_half_count_magnitude.i.i.i, align 8
  %19 = add i32 %18, %17
  %20 = add i32 %19, %cast.i.i.i.i15
  %reass.sub.i.i18 = add i32 %17, 63
  %add.i.i.i19 = sub i32 %reass.sub.i.i18, %20
  %sh_prom.i.i.i20 = zext nneg i32 %add.i.i.i19 to i64
  %shr.i.i.i21 = lshr i64 %missing_value.063, %sh_prom.i.i.i20
  %conv.i.i.i22 = trunc i64 %shr.i.i.i21 to i32
  %h.val5.i.i23 = load i32, ptr %6, align 4
  %add.i6.i.i24 = sub i32 64, %20
  %shl.i.i.i25 = shl i32 %add.i6.i.i24, %18
  %sub.i.i.i26 = sub i32 %shl.i.i.i25, %h.val5.i.i23
  %add1.i.i.i27 = add i32 %sub.i.i.i26, %conv.i.i.i22
  %cmp1.i28 = icmp slt i32 %add1.i.i.i27, 0
  br i1 %cmp1.i28, label %return, label %lor.lhs.false.i29

lor.lhs.false.i29:                                ; preds = %for.body
  %21 = load i32, ptr %counts_len.i, align 8
  %cmp2.not.i31 = icmp sgt i32 %21, %add1.i.i.i27
  br i1 %cmp2.not.i31, label %if.end4.i33, label %return

if.end4.i33:                                      ; preds = %lor.lhs.false.i29
  %22 = load i32, ptr %normalizing_index_offset.i.i.i, align 8
  %cmp.i.i.i35 = icmp eq i32 %22, 0
  br i1 %cmp.i.i.i35, label %hdr_record_values.exit57, label %if.end.i.i.i36

if.end.i.i.i36:                                   ; preds = %if.end4.i33
  %sub.i.i8.i37 = sub nsw i32 %add1.i.i.i27, %22
  %cmp2.i.i.i38 = icmp slt i32 %sub.i.i8.i37, 0
  %cmp5.not.i.i.i39 = icmp slt i32 %sub.i.i8.i37, %21
  %sub8.i.i.i40 = sub nsw i32 0, %21
  %spec.select.i.i.i41 = select i1 %cmp5.not.i.i.i39, i32 0, i32 %sub8.i.i.i40
  %adjustment.0.i.i.i42 = select i1 %cmp2.i.i.i38, i32 %21, i32 %spec.select.i.i.i41
  %add.i.i9.i43 = add nsw i32 %adjustment.0.i.i.i42, %sub.i.i8.i37
  br label %hdr_record_values.exit57

hdr_record_values.exit57:                         ; preds = %if.end4.i33, %if.end.i.i.i36
  %retval.0.i.i.i45 = phi i32 [ %add.i.i9.i43, %if.end.i.i.i36 ], [ %add1.i.i.i27, %if.end4.i33 ]
  %23 = load ptr, ptr %counts.i.i, align 8
  %idxprom.i.i47 = sext i32 %retval.0.i.i.i45 to i64
  %arrayidx.i.i48 = getelementptr inbounds i64, ptr %23, i64 %idxprom.i.i47
  %24 = load i64, ptr %arrayidx.i.i48, align 8
  %add.i.i49 = add nsw i64 %24, %count
  store i64 %add.i.i49, ptr %arrayidx.i.i48, align 8
  %25 = load i64, ptr %total_count.i.i, align 8
  %add1.i.i51 = add nsw i64 %25, %count
  store i64 %add1.i.i51, ptr %total_count.i.i, align 8
  %26 = load i64, ptr %min_value.i.i, align 8
  %27 = tail call i64 @llvm.smin.i64(i64 %26, i64 %missing_value.063)
  store i64 %27, ptr %min_value.i.i, align 8
  %28 = load i64, ptr %max_value.i.i, align 8
  %cond9.i.i56 = tail call i64 @llvm.smax.i64(i64 %28, i64 %missing_value.063)
  store i64 %cond9.i.i56, ptr %max_value.i.i, align 8
  %missing_value.0 = sub nsw i64 %missing_value.063, %expected_interval
  %cmp4.not = icmp slt i64 %missing_value.0, %expected_interval
  br i1 %cmp4.not, label %return, label %for.body

return:                                           ; preds = %hdr_record_values.exit57, %lor.lhs.false.i29, %for.body, %if.end.i, %lor.lhs.false.i, %entry, %if.end
  %retval.0 = phi i1 [ true, %if.end ], [ false, %entry ], [ false, %lor.lhs.false.i ], [ false, %if.end.i ], [ true, %hdr_record_values.exit57 ], [ false, %lor.lhs.false.i29 ], [ false, %for.body ]
  ret i1 %retval.0
}